; ModuleID = '23/1003.c'
source_filename = "23/1003.c"
target datalayout = "e-m:e-p270:32:32-p271:32:32-p272:64:64-i64:64-f80:128-n8:16:32:64-S128"
target triple = "x86_64-pc-linux-gnu"

@.str = private unnamed_addr constant [3 x i8] c"%c\00", align 1
@.str.1 = private unnamed_addr constant [2 x i8] c" \00", align 1

; Function Attrs: noinline nounwind uwtable
define dso_local void @main() #0 {
  %1 = alloca [100 x i8], align 16
  %2 = alloca i8*, align 8
  %3 = alloca i32, align 4
  %4 = alloca i32, align 4
  %5 = alloca i32, align 4
  %6 = alloca i32, align 4
  store i32 0, i32* %4, align 4
  %7 = getelementptr inbounds [100 x i8], [100 x i8]* %1, i64 0, i64 0
  %8 = call i32 (i8*, ...) bitcast (i32 (...)* @gets to i32 (i8*, ...)*)(i8* %7)
  %9 = getelementptr inbounds [100 x i8], [100 x i8]* %1, i64 0, i64 0
  store i8* %9, i8** %2, align 8
  %10 = getelementptr inbounds [100 x i8], [100 x i8]* %1, i64 0, i64 0
  %11 = call i64 @strlen(i8* %10) #3
  %12 = trunc i64 %11 to i32
  store i32 %12, i32* %3, align 4
  %13 = load i32, i32* %3, align 4
  %14 = sub nsw i32 %13, 1
  store i32 %14, i32* %5, align 4
  br label %15

15:                                               ; preds = %61, %0
  %16 = load i32, i32* %5, align 4
  %17 = icmp sge i32 %16, 0
  br i1 %17, label %18, label %64

18:                                               ; preds = %15
  %19 = load i8*, i8** %2, align 8
  %20 = load i32, i32* %5, align 4
  %21 = sext i32 %20 to i64
  %22 = getelementptr inbounds i8, i8* %19, i64 %21
  %23 = load i8, i8* %22, align 1
  %24 = sext i8 %23 to i32
  %25 = icmp ne i32 %24, 32
  br i1 %25, label %26, label %29

26:                                               ; preds = %18
  %27 = load i32, i32* %4, align 4
  %28 = add nsw i32 %27, 1
  store i32 %28, i32* %4, align 4
  br label %29

29:                                               ; preds = %26, %18
  %30 = load i8*, i8** %2, align 8
  %31 = load i32, i32* %5, align 4
  %32 = sext i32 %31 to i64
  %33 = getelementptr inbounds i8, i8* %30, i64 %32
  %34 = load i8, i8* %33, align 1
  %35 = sext i8 %34 to i32
  %36 = icmp eq i32 %35, 32
  br i1 %36, label %37, label %60

37:                                               ; preds = %29
  %38 = load i32, i32* %5, align 4
  %39 = add nsw i32 %38, 1
  store i32 %39, i32* %6, align 4
  br label %40

40:                                               ; preds = %55, %37
  %41 = load i32, i32* %6, align 4
  %42 = load i32, i32* %5, align 4
  %43 = load i32, i32* %4, align 4
  %44 = add nsw i32 %42, %43
  %45 = add nsw i32 %44, 1
  %46 = icmp slt i32 %41, %45
  br i1 %46, label %47, label %58

47:                                               ; preds = %40
  %48 = load i8*, i8** %2, align 8
  %49 = load i32, i32* %6, align 4
  %50 = sext i32 %49 to i64
  %51 = getelementptr inbounds i8, i8* %48, i64 %50
  %52 = load i8, i8* %51, align 1
  %53 = sext i8 %52 to i32
  %54 = call i32 (i8*, ...) @printf(i8* getelementptr inbounds ([3 x i8], [3 x i8]* @.str, i64 0, i64 0), i32 %53)
  br label %55

55:                                               ; preds = %47
  %56 = load i32, i32* %6, align 4
  %57 = add nsw i32 %56, 1
  store i32 %57, i32* %6, align 4
  br label %40

58:                                               ; preds = %40
  %59 = call i32 (i8*, ...) @printf(i8* getelementptr inbounds ([2 x i8], [2 x i8]* @.str.1, i64 0, i64 0))
  store i32 0, i32* %4, align 4
  br label %60

60:                                               ; preds = %58, %29
  br label %61

61:                                               ; preds = %60
  %62 = load i32, i32* %5, align 4
  %63 = add nsw i32 %62, -1
  store i32 %63, i32* %5, align 4
  br label %15

64:                                               ; preds = %15
  store i32 0, i32* %5, align 4
  br label %65

65:                                               ; preds = %91, %64
  %66 = load i8*, i8** %2, align 8
  %67 = load i32, i32* %5, align 4
  %68 = sext i32 %67 to i64
  %69 = getelementptr inbounds i8, i8* %66, i64 %68
  %70 = load i8, i8* %69, align 1
  %71 = sext i8 %70 to i32
  %72 = icmp ne i32 %71, 32
  br i1 %72, label %73, label %81

73:                                               ; preds = %65
  %74 = load i8*, i8** %2, align 8
  %75 = load i32, i32* %5, align 4
  %76 = sext i32 %75 to i64
  %77 = getelementptr inbounds i8, i8* %74, i64 %76
  %78 = load i8, i8* %77, align 1
  %79 = sext i8 %78 to i32
  %80 = icmp ne i32 %79, 0
  br label %81

81:                                               ; preds = %73, %65
  %82 = phi i1 [ false, %65 ], [ %80, %73 ]
  br i1 %82, label %83, label %94

83:                                               ; preds = %81
  %84 = load i8*, i8** %2, align 8
  %85 = load i32, i32* %5, align 4
  %86 = sext i32 %85 to i64
  %87 = getelementptr inbounds i8, i8* %84, i64 %86
  %88 = load i8, i8* %87, align 1
  %89 = sext i8 %88 to i32
  %90 = call i32 (i8*, ...) @printf(i8* getelementptr inbounds ([3 x i8], [3 x i8]* @.str, i64 0, i64 0), i32 %89)
  br label %91

91:                                               ; preds = %83
  %92 = load i32, i32* %5, align 4
  %93 = add nsw i32 %92, 1
  store i32 %93, i32* %5, align 4
  br label %65

94:                                               ; preds = %81
  ret void
}

declare dso_local i32 @gets(...) #1

; Function Attrs: nounwind readonly
declare dso_local i64 @strlen(i8*) #2

declare dso_local i32 @printf(i8*, ...) #1


!llvm.module.flags = !{!0}
!llvm.ident = !{!1}

!0 = !{i32 1, !"wchar_size", i32 4}
!1 = !{!"clang version 10.0.0-4ubuntu1 "}
